target datalayout = "e-m:e-p270:32:32-p271:32:32-p272:64:64-i64:64-i128:128-f80:128-n8:16:32:64-S128"
target triple = "x86_64-pc-linux-gnu"

%struct.SDL_WindowData = type { ptr, ptr, ptr, ptr, ptr, ptr, ptr, %union.anon, i32, i32, i32, i32, ptr, ptr, ptr, ptr, ptr, ptr, ptr, ptr, ptr, ptr, ptr, ptr, ptr, ptr, %struct.SDL_AtomicInt, ptr, i32, ptr, double, ptr, i32, i32, i32, i32, %struct.anon.3, %struct.anon.4, %struct.anon.5, %struct.anon.6, %struct.anon.7, %struct.anon.8, %struct.anon.9, i32, i32, i32, i64, i32, i32, i8, i8, i8, i8, i8, i8, i8, i8, i8, i8, i8, i8, i8, i8, i32, %struct.wl_list }
%union.anon = type { %struct.anon }
%struct.anon = type { ptr, %union.anon.0, i8 }
%union.anon.0 = type { %struct.anon.2 }
%struct.anon.2 = type { ptr, ptr }
%struct.SDL_AtomicInt = type { i32 }
%struct.anon.3 = type { double, double }
%struct.anon.4 = type { i32, i32, i32, i32 }
%struct.anon.5 = type { i32, i32, i32, i32 }
%struct.anon.6 = type { i32, i32 }
%struct.anon.7 = type { i32, i32 }
%struct.anon.8 = type { i32, i32 }
%struct.anon.9 = type { i32, i32, i8 }
%struct.wl_list = type { ptr, ptr }
%struct.SDL_Window = type { i32, ptr, ptr, i32, i32, i32, i32, i32, i32, i32, i32, float, float, i32, i32, i64, i64, float, i8, i8, i32, i32, %struct.SDL_Rect, %struct.SDL_Rect, %struct.SDL_Rect, i8, i8, i8, %struct.SDL_DisplayMode, %struct.SDL_DisplayMode, %struct.SDL_HDROutputProperties, float, ptr, i8, i8, i8, i8, i8, i8, i8, i8, i8, i32, i32, i32, i32, %struct.SDL_Rect, i32, i8, %struct.SDL_Rect, i32, %struct.SDL_Rect, ptr, ptr, i32, float, i32, i32, ptr, ptr, ptr, ptr, ptr, ptr, ptr, ptr, ptr }
%struct.SDL_DisplayMode = type { i32, i32, i32, i32, float, float, i32, i32, ptr }
%struct.SDL_HDROutputProperties = type { float, float }
%struct.SDL_Rect = type { i32, i32, i32, i32 }

; Function Attrs: nounwind uwtable
define internal double @GetWindowScale(ptr noundef %0) #0 {
  %2 = alloca ptr, align 8
  store ptr %0, ptr %2, align 8
  %3 = load ptr, ptr %2, align 8
  %4 = getelementptr inbounds nuw %struct.SDL_Window, ptr %3, i32 0, i32 15
  %5 = load i64, ptr %4, align 8
  %6 = and i64 %5, 8192
  %7 = icmp ne i64 %6, 0
  br i1 %7, label %15, label %8

8:                                                ; preds = %1
  %9 = load ptr, ptr %2, align 8
  %10 = getelementptr inbounds nuw %struct.SDL_Window, ptr %9, i32 0, i32 59
  %11 = load ptr, ptr %10, align 8
  %12 = getelementptr inbounds nuw %struct.SDL_WindowData, ptr %11, i32 0, i32 60
  %13 = load i8, ptr %12, align 1, !range !5, !noundef !6
  %14 = trunc i8 %13 to i1
  br i1 %14, label %15, label %21

15:                                               ; preds = %8, %1
  %16 = load ptr, ptr %2, align 8
  %17 = getelementptr inbounds nuw %struct.SDL_Window, ptr %16, i32 0, i32 59
  %18 = load ptr, ptr %17, align 8
  %19 = getelementptr inbounds nuw %struct.SDL_WindowData, ptr %18, i32 0, i32 30
  %20 = load double, ptr %19, align 8
  br label %22

21:                                               ; preds = %8
  br label %22

22:                                               ; preds = %21, %15
  %23 = phi double [ %20, %15 ], [ 1.000000e+00, %21 ]
  ret double %23
}

; Function Attrs: nounwind uwtable
define internal i32 @PointToPixel(ptr noundef %0, i32 noundef %1) #0 {
  %3 = alloca ptr, align 8
  %4 = alloca i32, align 4
  store ptr %0, ptr %3, align 8
  store i32 %1, ptr %4, align 4
  %5 = load i32, ptr %4, align 4
  %6 = icmp ne i32 %5, 0
  br i1 %6, label %7, label %27

7:                                                ; preds = %2
  %8 = load i32, ptr %4, align 4
  %9 = sitofp i32 %8 to double
  %10 = load ptr, ptr %3, align 8
  %11 = call double @GetWindowScale(ptr noundef %10)
  %12 = call double @llvm.fmuladd.f64(double %9, double %11, double 0x3EB0C6F7A0B5ED8D)
  %13 = call i64 @SDL_lround_REAL(double noundef %12)
  %14 = trunc i64 %13 to i32
  %15 = icmp sgt i32 %14, 1
  br i1 %15, label %16, label %24

16:                                               ; preds = %7
  %17 = load i32, ptr %4, align 4
  %18 = sitofp i32 %17 to double
  %19 = load ptr, ptr %3, align 8
  %20 = call double @GetWindowScale(ptr noundef %19)
  %21 = call double @llvm.fmuladd.f64(double %18, double %20, double 0x3EB0C6F7A0B5ED8D)
  %22 = call i64 @SDL_lround_REAL(double noundef %21)
  %23 = trunc i64 %22 to i32
  br label %25

24:                                               ; preds = %7
  br label %25

25:                                               ; preds = %24, %16
  %26 = phi i32 [ %23, %16 ], [ 1, %24 ]
  br label %28

27:                                               ; preds = %2
  br label %28

28:                                               ; preds = %27, %25
  %29 = phi i32 [ %26, %25 ], [ 0, %27 ]
  ret i32 %29
}

; Function Attrs: nounwind uwtable
define internal void @AdjustPopupOffset(ptr noundef %0, ptr noundef %1, ptr noundef %2) #0 {
  %4 = alloca ptr, align 8
  %5 = alloca ptr, align 8
  %6 = alloca ptr, align 8
  store ptr %0, ptr %4, align 8
  store ptr %1, ptr %5, align 8
  store ptr %2, ptr %6, align 8
  ret void
}

; Function Attrs: nounwind uwtable
define internal void @handle_configure_xdg_popup(ptr noundef %0, ptr noundef %1, i32 noundef %2, i32 noundef %3, i32 noundef %4, i32 noundef %5) #0 {
  %7 = alloca ptr, align 8
  %8 = alloca ptr, align 8
  %9 = alloca i32, align 4
  %10 = alloca i32, align 4
  %11 = alloca i32, align 4
  %12 = alloca i32, align 4
  %13 = alloca ptr, align 8
  %14 = alloca i32, align 4
  %15 = alloca i32, align 4
  store ptr %0, ptr %7, align 8
  store ptr %1, ptr %8, align 8
  store i32 %2, ptr %9, align 4
  store i32 %3, ptr %10, align 4
  store i32 %4, ptr %11, align 4
  store i32 %5, ptr %12, align 4
  call void @llvm.lifetime.start.p0(i64 8, ptr %13) #10
  %16 = load ptr, ptr %7, align 8
  store ptr %16, ptr %13, align 8
  call void @llvm.lifetime.start.p0(i64 4, ptr %14) #10
  store i32 0, ptr %14, align 4
  call void @llvm.lifetime.start.p0(i64 4, ptr %15) #10
  store i32 0, ptr %15, align 4
  %17 = load ptr, ptr %13, align 8
  %18 = getelementptr inbounds nuw %struct.SDL_WindowData, ptr %17, i32 0, i32 0
  %19 = load ptr, ptr %18, align 8
  call void @AdjustPopupOffset(ptr noundef %19, ptr noundef %14, ptr noundef %15)
  %20 = load i32, ptr %14, align 4
  %21 = load i32, ptr %9, align 4
  %22 = sub nsw i32 %21, %20
  store i32 %22, ptr %9, align 4
  %23 = load i32, ptr %15, align 4
  %24 = load i32, ptr %10, align 4
  %25 = sub nsw i32 %24, %23
  store i32 %25, ptr %10, align 4
  %26 = load i32, ptr %11, align 4
  %27 = icmp eq i32 %26, 0
  br i1 %27, label %31, label %28

28:                                               ; preds = %6
  %29 = load i32, ptr %12, align 4
  %30 = icmp eq i32 %29, 0
  br i1 %30, label %31, label %44

31:                                               ; preds = %28, %6
  %32 = load ptr, ptr %13, align 8
  %33 = getelementptr inbounds nuw %struct.SDL_WindowData, ptr %32, i32 0, i32 0
  %34 = load ptr, ptr %33, align 8
  %35 = getelementptr inbounds nuw %struct.SDL_Window, ptr %34, i32 0, i32 23
  %36 = getelementptr inbounds nuw %struct.SDL_Rect, ptr %35, i32 0, i32 2
  %37 = load i32, ptr %36, align 8
  store i32 %37, ptr %11, align 4
  %38 = load ptr, ptr %13, align 8
  %39 = getelementptr inbounds nuw %struct.SDL_WindowData, ptr %38, i32 0, i32 0
  %40 = load ptr, ptr %39, align 8
  %41 = getelementptr inbounds nuw %struct.SDL_Window, ptr %40, i32 0, i32 23
  %42 = getelementptr inbounds nuw %struct.SDL_Rect, ptr %41, i32 0, i32 3
  %43 = load i32, ptr %42, align 4
  store i32 %43, ptr %12, align 4
  br label %44

44:                                               ; preds = %31, %28
  %45 = load i32, ptr %11, align 4
  %46 = load ptr, ptr %13, align 8
  %47 = getelementptr inbounds nuw %struct.SDL_WindowData, ptr %46, i32 0, i32 39
  %48 = getelementptr inbounds nuw %struct.anon.6, ptr %47, i32 0, i32 0
  %49 = load i32, ptr %48, align 8
  %50 = icmp ne i32 %45, %49
  br i1 %50, label %58, label %51

51:                                               ; preds = %44
  %52 = load i32, ptr %12, align 4
  %53 = load ptr, ptr %13, align 8
  %54 = getelementptr inbounds nuw %struct.SDL_WindowData, ptr %53, i32 0, i32 39
  %55 = getelementptr inbounds nuw %struct.anon.6, ptr %54, i32 0, i32 1
  %56 = load i32, ptr %55, align 4
  %57 = icmp ne i32 %52, %56
  br i1 %57, label %58, label %89

58:                                               ; preds = %51, %44
  %59 = load i32, ptr %11, align 4
  %60 = load ptr, ptr %13, align 8
  %61 = getelementptr inbounds nuw %struct.SDL_WindowData, ptr %60, i32 0, i32 37
  %62 = getelementptr inbounds nuw %struct.anon.4, ptr %61, i32 0, i32 0
  store i32 %59, ptr %62, align 8
  %63 = load i32, ptr %12, align 4
  %64 = load ptr, ptr %13, align 8
  %65 = getelementptr inbounds nuw %struct.SDL_WindowData, ptr %64, i32 0, i32 37
  %66 = getelementptr inbounds nuw %struct.anon.4, ptr %65, i32 0, i32 1
  store i32 %63, ptr %66, align 4
  %67 = load ptr, ptr %13, align 8
  %68 = getelementptr inbounds nuw %struct.SDL_WindowData, ptr %67, i32 0, i32 60
  %69 = load i8, ptr %68, align 1, !range !5, !noundef !6
  %70 = trunc i8 %69 to i1
  br i1 %70, label %71, label %88

71:                                               ; preds = %58
  %72 = load ptr, ptr %13, align 8
  %73 = getelementptr inbounds nuw %struct.SDL_WindowData, ptr %72, i32 0, i32 0
  %74 = load ptr, ptr %73, align 8
  %75 = load i32, ptr %11, align 4
  %76 = call i32 @PointToPixel(ptr noundef %74, i32 noundef %75)
  %77 = load ptr, ptr %13, align 8
  %78 = getelementptr inbounds nuw %struct.SDL_WindowData, ptr %77, i32 0, i32 37
  %79 = getelementptr inbounds nuw %struct.anon.4, ptr %78, i32 0, i32 2
  store i32 %76, ptr %79, align 8
  %80 = load ptr, ptr %13, align 8
  %81 = getelementptr inbounds nuw %struct.SDL_WindowData, ptr %80, i32 0, i32 0
  %82 = load ptr, ptr %81, align 8
  %83 = load i32, ptr %12, align 4
  %84 = call i32 @PointToPixel(ptr noundef %82, i32 noundef %83)
  %85 = load ptr, ptr %13, align 8
  %86 = getelementptr inbounds nuw %struct.SDL_WindowData, ptr %85, i32 0, i32 37
  %87 = getelementptr inbounds nuw %struct.anon.4, ptr %86, i32 0, i32 3
  store i32 %84, ptr %87, align 4
  br label %88

88:                                               ; preds = %71, %58
  br label %89

89:                                               ; preds = %88, %51
  %90 = load ptr, ptr %13, align 8
  %91 = getelementptr inbounds nuw %struct.SDL_WindowData, ptr %90, i32 0, i32 60
  %92 = load i8, ptr %91, align 1, !range !5, !noundef !6
  %93 = trunc i8 %92 to i1
  br i1 %93, label %94, label %109

94:                                               ; preds = %89
  %95 = load ptr, ptr %13, align 8
  %96 = getelementptr inbounds nuw %struct.SDL_WindowData, ptr %95, i32 0, i32 0
  %97 = load ptr, ptr %96, align 8
  %98 = getelementptr inbounds nuw %struct.SDL_Window, ptr %97, i32 0, i32 63
  %99 = load ptr, ptr %98, align 8
  %100 = load i32, ptr %9, align 4
  %101 = call i32 @PointToPixel(ptr noundef %99, i32 noundef %100)
  store i32 %101, ptr %9, align 4
  %102 = load ptr, ptr %13, align 8
  %103 = getelementptr inbounds nuw %struct.SDL_WindowData, ptr %102, i32 0, i32 0
  %104 = load ptr, ptr %103, align 8
  %105 = getelementptr inbounds nuw %struct.SDL_Window, ptr %104, i32 0, i32 63
  %106 = load ptr, ptr %105, align 8
  %107 = load i32, ptr %10, align 4
  %108 = call i32 @PointToPixel(ptr noundef %106, i32 noundef %107)
  store i32 %108, ptr %10, align 4
  br label %109

109:                                              ; preds = %94, %89
  %110 = load ptr, ptr %13, align 8
  %111 = getelementptr inbounds nuw %struct.SDL_WindowData, ptr %110, i32 0, i32 0
  %112 = load ptr, ptr %111, align 8
  %113 = load i32, ptr %9, align 4
  %114 = load i32, ptr %10, align 4
  %115 = call zeroext i1 @SDL_SendWindowEvent(ptr noundef %112, i32 noundef 517, i32 noundef %113, i32 noundef %114)
  %116 = load i32, ptr %11, align 4
  %117 = load ptr, ptr %13, align 8
  %118 = getelementptr inbounds nuw %struct.SDL_WindowData, ptr %117, i32 0, i32 39
  %119 = getelementptr inbounds nuw %struct.anon.6, ptr %118, i32 0, i32 0
  store i32 %116, ptr %119, align 8
  %120 = load i32, ptr %12, align 4
  %121 = load ptr, ptr %13, align 8
  %122 = getelementptr inbounds nuw %struct.SDL_WindowData, ptr %121, i32 0, i32 39
  %123 = getelementptr inbounds nuw %struct.anon.6, ptr %122, i32 0, i32 1
  store i32 %120, ptr %123, align 4
  %124 = load ptr, ptr %13, align 8
  %125 = getelementptr inbounds nuw %struct.SDL_WindowData, ptr %124, i32 0, i32 9
  %126 = load i32, ptr %125, align 4
  %127 = icmp eq i32 %126, 1
  br i1 %127, label %128, label %131

128:                                              ; preds = %109
  %129 = load ptr, ptr %13, align 8
  %130 = getelementptr inbounds nuw %struct.SDL_WindowData, ptr %129, i32 0, i32 9
  store i32 2, ptr %130, align 4
  br label %131

131:                                              ; preds = %128, %109
  call void @llvm.lifetime.end.p0(i64 4, ptr %15) #10
  call void @llvm.lifetime.end.p0(i64 4, ptr %14) #10
  call void @llvm.lifetime.end.p0(i64 8, ptr %13) #10
  ret void
}