; Function Attrs: nounwind uwtable
define internal void @handle_configure_xdg_popup(ptr noundef captures(none) %0, ptr readnone captures(none) %1, i32 noundef %2, i32 noundef %3, i32 noundef %4, i32 noundef %5) #0 {
  %7 = icmp eq i32 %4, 0
  %8 = icmp eq i32 %5, 0
  %or.cond = or i1 %7, %8
  br i1 %or.cond, label %9, label %15

9:                                                ; preds = %6
  %10 = load ptr, ptr %0, align 8
  %11 = getelementptr inbounds nuw i8, ptr %10, i64 128
  %12 = load i32, ptr %11, align 8
  %13 = getelementptr inbounds nuw i8, ptr %10, i64 132
  %14 = load i32, ptr %13, align 4
  br label %15

15:                                               ; preds = %6, %9
  %.038 = phi i32 [ %12, %9 ], [ %4, %6 ]
  %.037 = phi i32 [ %14, %9 ], [ %5, %6 ]
  %16 = getelementptr inbounds nuw i8, ptr %0, i64 328
  %17 = load i32, ptr %16, align 8
  %.not = icmp eq i32 %.038, %17
  br i1 %.not, label %18, label %21

18:                                               ; preds = %15
  %19 = getelementptr inbounds nuw i8, ptr %0, i64 332
  %20 = load i32, ptr %19, align 4
  %.not42 = icmp eq i32 %.037, %20
  br i1 %.not42, label %98, label %21

21:                                               ; preds = %18, %15
  %22 = getelementptr inbounds nuw i8, ptr %0, i64 296
  store i32 %.038, ptr %22, align 8
  %23 = getelementptr inbounds nuw i8, ptr %0, i64 300
  store i32 %.037, ptr %23, align 4
  %24 = getelementptr inbounds nuw i8, ptr %0, i64 403
  %25 = load i8, ptr %24, align 1, !range !5, !noundef !6
  %26 = trunc nuw i8 %25 to i1
  br i1 %26, label %27, label %98

27:                                               ; preds = %21
  %.not.i = icmp eq i32 %.038, 0
  br i1 %.not.i, label %PointToPixel.exit, label %28

28:                                               ; preds = %27
  %29 = load ptr, ptr %0, align 8
  %30 = sitofp i32 %.038 to double
  %31 = getelementptr inbounds nuw i8, ptr %29, i64 72
  %32 = load i64, ptr %31, align 8
  %33 = and i64 %32, 8192
  %.not.i.i = icmp eq i64 %33, 0
  %34 = getelementptr inbounds nuw i8, ptr %29, i64 392
  %35 = load ptr, ptr %34, align 8
  br i1 %.not.i.i, label %36, label %._crit_edge.i.i

36:                                               ; preds = %28
  %37 = getelementptr inbounds nuw i8, ptr %35, i64 403
  %38 = load i8, ptr %37, align 1, !range !5, !noundef !6
  %39 = trunc nuw i8 %38 to i1
  br i1 %39, label %._crit_edge.i.i, label %GetWindowScale.exit.i

._crit_edge.i.i:                                  ; preds = %36, %28
  %40 = getelementptr inbounds nuw i8, ptr %35, i64 248
  %41 = load double, ptr %40, align 8
  br label %GetWindowScale.exit.i

GetWindowScale.exit.i:                            ; preds = %._crit_edge.i.i, %36
  %42 = phi double [ %41, %._crit_edge.i.i ], [ 1.000000e+00, %36 ]
  %43 = tail call double @llvm.fmuladd.f64(double %30, double %42, double 0x3EB0C6F7A0B5ED8D)
  %44 = tail call i64 @SDL_lround_REAL(double noundef %43) #15
  %45 = trunc i64 %44 to i32
  %46 = icmp sgt i32 %45, 1
  br i1 %46, label %47, label %PointToPixel.exit

47:                                               ; preds = %GetWindowScale.exit.i
  %48 = load i64, ptr %31, align 8
  %49 = and i64 %48, 8192
  %.not.i4.i = icmp eq i64 %49, 0
  %50 = load ptr, ptr %34, align 8
  br i1 %.not.i4.i, label %51, label %._crit_edge.i5.i

51:                                               ; preds = %47
  %52 = getelementptr inbounds nuw i8, ptr %50, i64 403
  %53 = load i8, ptr %52, align 1, !range !5, !noundef !6
  %54 = trunc nuw i8 %53 to i1
  br i1 %54, label %._crit_edge.i5.i, label %GetWindowScale.exit6.i

._crit_edge.i5.i:                                 ; preds = %51, %47
  %55 = getelementptr inbounds nuw i8, ptr %50, i64 248
  %56 = load double, ptr %55, align 8
  br label %GetWindowScale.exit6.i

GetWindowScale.exit6.i:                           ; preds = %._crit_edge.i5.i, %51
  %57 = phi double [ %56, %._crit_edge.i5.i ], [ 1.000000e+00, %51 ]
  %58 = tail call double @llvm.fmuladd.f64(double %30, double %57, double 0x3EB0C6F7A0B5ED8D)
  %59 = tail call i64 @SDL_lround_REAL(double noundef %58) #15
  %60 = trunc i64 %59 to i32
  br label %PointToPixel.exit

PointToPixel.exit:                                ; preds = %27, %GetWindowScale.exit.i, %GetWindowScale.exit6.i
  %61 = phi i32 [ %60, %GetWindowScale.exit6.i ], [ 1, %GetWindowScale.exit.i ], [ 0, %27 ]
  %62 = getelementptr inbounds nuw i8, ptr %0, i64 304
  store i32 %61, ptr %62, align 8
  %.not.i43 = icmp eq i32 %.037, 0
  br i1 %.not.i43, label %PointToPixel.exit50, label %63

63:                                               ; preds = %PointToPixel.exit
  %64 = load ptr, ptr %0, align 8
  %65 = sitofp i32 %.037 to double
  %66 = getelementptr inbounds nuw i8, ptr %64, i64 72
  %67 = load i64, ptr %66, align 8
  %68 = and i64 %67, 8192
  %.not.i.i44 = icmp eq i64 %68, 0
  %69 = getelementptr inbounds nuw i8, ptr %64, i64 392
  %70 = load ptr, ptr %69, align 8
  br i1 %.not.i.i44, label %71, label %._crit_edge.i.i45

71:                                               ; preds = %63
  %72 = getelementptr inbounds nuw i8, ptr %70, i64 403
  %73 = load i8, ptr %72, align 1, !range !5, !noundef !6
  %74 = trunc nuw i8 %73 to i1
  br i1 %74, label %._crit_edge.i.i45, label %GetWindowScale.exit.i46

._crit_edge.i.i45:                                ; preds = %71, %63
  %75 = getelementptr inbounds nuw i8, ptr %70, i64 248
  %76 = load double, ptr %75, align 8
  br label %GetWindowScale.exit.i46

GetWindowScale.exit.i46:                          ; preds = %._crit_edge.i.i45, %71
  %77 = phi double [ %76, %._crit_edge.i.i45 ], [ 1.000000e+00, %71 ]
  %78 = tail call double @llvm.fmuladd.f64(double %65, double %77, double 0x3EB0C6F7A0B5ED8D)
  %79 = tail call i64 @SDL_lround_REAL(double noundef %78) #15
  %80 = trunc i64 %79 to i32
  %81 = icmp sgt i32 %80, 1
  br i1 %81, label %82, label %PointToPixel.exit50

82:                                               ; preds = %GetWindowScale.exit.i46
  %83 = load i64, ptr %66, align 8
  %84 = and i64 %83, 8192
  %.not.i4.i47 = icmp eq i64 %84, 0
  %85 = load ptr, ptr %69, align 8
  br i1 %.not.i4.i47, label %86, label %._crit_edge.i5.i48

86:                                               ; preds = %82
  %87 = getelementptr inbounds nuw i8, ptr %85, i64 403
  %88 = load i8, ptr %87, align 1, !range !5, !noundef !6
  %89 = trunc nuw i8 %88 to i1
  br i1 %89, label %._crit_edge.i5.i48, label %GetWindowScale.exit6.i49

._crit_edge.i5.i48:                               ; preds = %86, %82
  %90 = getelementptr inbounds nuw i8, ptr %85, i64 248
  %91 = load double, ptr %90, align 8
  br label %GetWindowScale.exit6.i49

GetWindowScale.exit6.i49:                         ; preds = %._crit_edge.i5.i48, %86
  %92 = phi double [ %91, %._crit_edge.i5.i48 ], [ 1.000000e+00, %86 ]
  %93 = tail call double @llvm.fmuladd.f64(double %65, double %92, double 0x3EB0C6F7A0B5ED8D)
  %94 = tail call i64 @SDL_lround_REAL(double noundef %93) #15
  %95 = trunc i64 %94 to i32
  br label %PointToPixel.exit50

PointToPixel.exit50:                              ; preds = %PointToPixel.exit, %GetWindowScale.exit.i46, %GetWindowScale.exit6.i49
  %96 = phi i32 [ %95, %GetWindowScale.exit6.i49 ], [ 1, %GetWindowScale.exit.i46 ], [ 0, %PointToPixel.exit ]
  %97 = getelementptr inbounds nuw i8, ptr %0, i64 308
  store i32 %96, ptr %97, align 4
  br label %98

98:                                               ; preds = %21, %PointToPixel.exit50, %18
  %99 = getelementptr inbounds nuw i8, ptr %0, i64 403
  %100 = load i8, ptr %99, align 1, !range !5, !noundef !6
  %101 = trunc nuw i8 %100 to i1
  br i1 %101, label %102, label %PointToPixel.exit66

102:                                              ; preds = %98
  %.not.i51 = icmp eq i32 %2, 0
  br i1 %.not.i51, label %PointToPixel.exit58, label %103

103:                                              ; preds = %102
  %104 = load ptr, ptr %0, align 8
  %105 = getelementptr inbounds nuw i8, ptr %104, i64 424
  %106 = load ptr, ptr %105, align 8
  %107 = sitofp i32 %2 to double
  %108 = getelementptr inbounds nuw i8, ptr %106, i64 72
  %109 = load i64, ptr %108, align 8
  %110 = and i64 %109, 8192
  %.not.i.i52 = icmp eq i64 %110, 0
  %111 = getelementptr inbounds nuw i8, ptr %106, i64 392
  %112 = load ptr, ptr %111, align 8
  br i1 %.not.i.i52, label %113, label %._crit_edge.i.i53

113:                                              ; preds = %103
  %114 = getelementptr inbounds nuw i8, ptr %112, i64 403
  %115 = load i8, ptr %114, align 1, !range !5, !noundef !6
  %116 = trunc nuw i8 %115 to i1
  br i1 %116, label %._crit_edge.i.i53, label %GetWindowScale.exit.i54

._crit_edge.i.i53:                                ; preds = %113, %103
  %117 = getelementptr inbounds nuw i8, ptr %112, i64 248
  %118 = load double, ptr %117, align 8
  br label %GetWindowScale.exit.i54

GetWindowScale.exit.i54:                          ; preds = %._crit_edge.i.i53, %113
  %119 = phi double [ %118, %._crit_edge.i.i53 ], [ 1.000000e+00, %113 ]
  %120 = tail call double @llvm.fmuladd.f64(double %107, double %119, double 0x3EB0C6F7A0B5ED8D)
  %121 = tail call i64 @SDL_lround_REAL(double noundef %120) #15
  %122 = trunc i64 %121 to i32
  %123 = icmp sgt i32 %122, 1
  br i1 %123, label %124, label %PointToPixel.exit58

124:                                              ; preds = %GetWindowScale.exit.i54
  %125 = load i64, ptr %108, align 8
  %126 = and i64 %125, 8192
  %.not.i4.i55 = icmp eq i64 %126, 0
  %127 = load ptr, ptr %111, align 8
  br i1 %.not.i4.i55, label %128, label %._crit_edge.i5.i56

128:                                              ; preds = %124
  %129 = getelementptr inbounds nuw i8, ptr %127, i64 403
  %130 = load i8, ptr %129, align 1, !range !5, !noundef !6
  %131 = trunc nuw i8 %130 to i1
  br i1 %131, label %._crit_edge.i5.i56, label %GetWindowScale.exit6.i57

._crit_edge.i5.i56:                               ; preds = %128, %124
  %132 = getelementptr inbounds nuw i8, ptr %127, i64 248
  %133 = load double, ptr %132, align 8
  br label %GetWindowScale.exit6.i57

GetWindowScale.exit6.i57:                         ; preds = %._crit_edge.i5.i56, %128
  %134 = phi double [ %133, %._crit_edge.i5.i56 ], [ 1.000000e+00, %128 ]
  %135 = tail call double @llvm.fmuladd.f64(double %107, double %134, double 0x3EB0C6F7A0B5ED8D)
  %136 = tail call i64 @SDL_lround_REAL(double noundef %135) #15
  %137 = trunc i64 %136 to i32
  br label %PointToPixel.exit58

PointToPixel.exit58:                              ; preds = %102, %GetWindowScale.exit.i54, %GetWindowScale.exit6.i57
  %138 = phi i32 [ %137, %GetWindowScale.exit6.i57 ], [ 1, %GetWindowScale.exit.i54 ], [ 0, %102 ]
  %.not.i59 = icmp eq i32 %3, 0
  br i1 %.not.i59, label %PointToPixel.exit66, label %139

139:                                              ; preds = %PointToPixel.exit58
  %140 = load ptr, ptr %0, align 8
  %141 = getelementptr inbounds nuw i8, ptr %140, i64 424
  %142 = load ptr, ptr %141, align 8
  %143 = sitofp i32 %3 to double
  %144 = getelementptr inbounds nuw i8, ptr %142, i64 72
  %145 = load i64, ptr %144, align 8
  %146 = and i64 %145, 8192
  %.not.i.i60 = icmp eq i64 %146, 0
  %147 = getelementptr inbounds nuw i8, ptr %142, i64 392
  %148 = load ptr, ptr %147, align 8
  br i1 %.not.i.i60, label %149, label %._crit_edge.i.i61

149:                                              ; preds = %139
  %150 = getelementptr inbounds nuw i8, ptr %148, i64 403
  %151 = load i8, ptr %150, align 1, !range !5, !noundef !6
  %152 = trunc nuw i8 %151 to i1
  br i1 %152, label %._crit_edge.i.i61, label %GetWindowScale.exit.i62

._crit_edge.i.i61:                                ; preds = %149, %139
  %153 = getelementptr inbounds nuw i8, ptr %148, i64 248
  %154 = load double, ptr %153, align 8
  br label %GetWindowScale.exit.i62

GetWindowScale.exit.i62:                          ; preds = %._crit_edge.i.i61, %149
  %155 = phi double [ %154, %._crit_edge.i.i61 ], [ 1.000000e+00, %149 ]
  %156 = tail call double @llvm.fmuladd.f64(double %143, double %155, double 0x3EB0C6F7A0B5ED8D)
  %157 = tail call i64 @SDL_lround_REAL(double noundef %156) #15
  %158 = trunc i64 %157 to i32
  %159 = icmp sgt i32 %158, 1
  br i1 %159, label %160, label %PointToPixel.exit66

160:                                              ; preds = %GetWindowScale.exit.i62
  %161 = load i64, ptr %144, align 8
  %162 = and i64 %161, 8192
  %.not.i4.i63 = icmp eq i64 %162, 0
  %163 = load ptr, ptr %147, align 8
  br i1 %.not.i4.i63, label %164, label %._crit_edge.i5.i64

164:                                              ; preds = %160
  %165 = getelementptr inbounds nuw i8, ptr %163, i64 403
  %166 = load i8, ptr %165, align 1, !range !5, !noundef !6
  %167 = trunc nuw i8 %166 to i1
  br i1 %167, label %._crit_edge.i5.i64, label %GetWindowScale.exit6.i65

._crit_edge.i5.i64:                               ; preds = %164, %160
  %168 = getelementptr inbounds nuw i8, ptr %163, i64 248
  %169 = load double, ptr %168, align 8
  br label %GetWindowScale.exit6.i65

GetWindowScale.exit6.i65:                         ; preds = %._crit_edge.i5.i64, %164
  %170 = phi double [ %169, %._crit_edge.i5.i64 ], [ 1.000000e+00, %164 ]
  %171 = tail call double @llvm.fmuladd.f64(double %143, double %170, double 0x3EB0C6F7A0B5ED8D)
  %172 = tail call i64 @SDL_lround_REAL(double noundef %171) #15
  %173 = trunc i64 %172 to i32
  br label %PointToPixel.exit66

PointToPixel.exit66:                              ; preds = %GetWindowScale.exit6.i65, %GetWindowScale.exit.i62, %PointToPixel.exit58, %98
  %.039 = phi i32 [ %3, %98 ], [ %173, %GetWindowScale.exit6.i65 ], [ 1, %GetWindowScale.exit.i62 ], [ 0, %PointToPixel.exit58 ]
  %.0 = phi i32 [ %2, %98 ], [ %138, %GetWindowScale.exit6.i65 ], [ %138, %GetWindowScale.exit.i62 ], [ %138, %PointToPixel.exit58 ]
  %174 = load ptr, ptr %0, align 8
  %175 = tail call zeroext i1 @SDL_SendWindowEvent(ptr noundef %174, i32 noundef 517, i32 noundef %.0, i32 noundef %.039) #15
  store i32 %.038, ptr %16, align 8
  %176 = getelementptr inbounds nuw i8, ptr %0, i64 332
  store i32 %.037, ptr %176, align 4
  %177 = getelementptr inbounds nuw i8, ptr %0, i64 92
  %178 = load i32, ptr %177, align 4
  %179 = icmp eq i32 %178, 1
  br i1 %179, label %180, label %181

180:                                              ; preds = %PointToPixel.exit66
  store i32 2, ptr %177, align 4
  br label %181

181:                                              ; preds = %180, %PointToPixel.exit66
  ret void
}